; Function Attrs: nounwind uwtable
define hidden ptr @X509at_add1_attr_by_txt(ptr noundef captures(address_is_null) %0, ptr noundef %1, i32 noundef %2, ptr noundef %3, i32 noundef %4) local_unnamed_addr #0 {
  %6 = tail call ptr @OBJ_txt2obj(ptr noundef %1, i32 noundef 0) #4
  %7 = icmp eq ptr %6, null
  br i1 %7, label %X509_ATTRIBUTE_create_by_txt.exit.thread, label %8

X509_ATTRIBUTE_create_by_txt.exit.thread:         ; preds = %5
  tail call void @ERR_put_error(i32 noundef 11, i32 noundef 0, i32 noundef 111, ptr noundef nonnull @.str, i32 noundef 269) #4
  tail call void (i32, ...) @ERR_add_error_data(i32 noundef 2, ptr noundef nonnull @.str.1, ptr noundef %1) #4
  br label %18

8:                                                ; preds = %5
  %9 = tail call ptr @X509_ATTRIBUTE_new() #4
  %10 = icmp eq ptr %9, null
  br i1 %10, label %11, label %X509_ATTRIBUTE_set1_object.exit.i

11:                                               ; preds = %8
  tail call void @ERR_put_error(i32 noundef 11, i32 noundef 0, i32 noundef 65, ptr noundef nonnull @.str, i32 noundef 239) #4
  br label %X509_ATTRIBUTE_create_by_txt.exit.thread13

X509_ATTRIBUTE_set1_object.exit.i:                ; preds = %8
  %12 = load ptr, ptr %9, align 8, !tbaa !6
  tail call void @ASN1_OBJECT_free(ptr noundef %12) #4
  %13 = tail call ptr @OBJ_dup(ptr noundef nonnull %6) #4
  store ptr %13, ptr %9, align 8, !tbaa !6
  %.not27.i = icmp eq ptr %13, null
  br i1 %.not27.i, label %X509_ATTRIBUTE_set1_object.exit.thread.i, label %14

14:                                               ; preds = %X509_ATTRIBUTE_set1_object.exit.i
  %15 = tail call i32 @X509_ATTRIBUTE_set1_data(ptr noundef nonnull %9, i32 noundef %2, ptr noundef %3, i32 noundef %4)
  %.not22.i = icmp eq i32 %15, 0
  br i1 %.not22.i, label %X509_ATTRIBUTE_set1_object.exit.thread.i, label %16

X509_ATTRIBUTE_set1_object.exit.thread.i:         ; preds = %14, %X509_ATTRIBUTE_set1_object.exit.i
  tail call void @X509_ATTRIBUTE_free(ptr noundef nonnull %9) #4
  br label %X509_ATTRIBUTE_create_by_txt.exit.thread13

X509_ATTRIBUTE_create_by_txt.exit.thread13:       ; preds = %11, %X509_ATTRIBUTE_set1_object.exit.thread.i
  tail call void @ASN1_OBJECT_free(ptr noundef nonnull %6) #4
  br label %18

16:                                               ; preds = %14
  tail call void @ASN1_OBJECT_free(ptr noundef nonnull %6) #4
  %17 = tail call ptr @X509at_add1_attr(ptr noundef %0, ptr noundef nonnull %9)
  tail call void @X509_ATTRIBUTE_free(ptr noundef nonnull %9) #4
  br label %18

18:                                               ; preds = %X509_ATTRIBUTE_create_by_txt.exit.thread13, %X509_ATTRIBUTE_create_by_txt.exit.thread, %16
  %.0 = phi ptr [ %17, %16 ], [ null, %X509_ATTRIBUTE_create_by_txt.exit.thread ], [ null, %X509_ATTRIBUTE_create_by_txt.exit.thread13 ]
  ret ptr %.0
}